target datalayout = "e-m:e-p270:32:32-p271:32:32-p272:64:64-i64:64-i128:128-f80:128-n8:16:32:64-S128"
target triple = "x86_64-pc-linux-gnu"

%struct.nsis_st = type { i64, i32, i32, i64, i64, ptr, i32, i32, i32, i8, i8, i8, i8, %struct.stream_state, %struct.nsis_bzstream, %struct.CLI_LZMA, %struct.nsis_z_stream_s, ptr, ptr, [1024 x i8] }
%struct.stream_state = type { i32, ptr, i32, ptr }
%struct.nsis_bzstream = type { ptr, i32, i32, i32, ptr, i32, i32, i32, ptr, ptr, ptr, ptr }
%struct.CLI_LZMA = type { %struct.CLzmaDec, [5 x i8], i32, i32, i32, i32, i64, ptr, ptr, i64, i64 }
%struct.CLzmaDec = type { %struct._CLzmaProps, ptr, ptr, ptr, i32, i32, i64, i64, i32, i32, i32, [4 x i32], i32, i32, i32, i32, i32, [20 x i8] }
%struct._CLzmaProps = type { i32, i32, i32, i32 }
%struct.nsis_z_stream_s = type { ptr, i32, i64, ptr, i32, %struct.inflate_blocks_state }
%struct.inflate_blocks_state = type { %struct.z_stuff, i32, %union.anon.0, i32, i32, i64, [1440 x %struct.inflate_huft_s], [32768 x i8], ptr, ptr, ptr, i64 }
%struct.z_stuff = type { i8, [544 x %struct.inflate_huft_s], i32, i32, ptr, ptr, [288 x i32], [288 x i32] }
%struct.inflate_huft_s = type { %union.anon, i16 }
%union.anon = type { %struct.anon }
%struct.anon = type { i8, i8 }
%union.anon.0 = type { %struct.anon.1 }
%struct.anon.1 = type { i32, i32, [320 x i32], i32, ptr }

; Function Attrs: nounwind uwtable
define internal void @nsis_shutdown(ptr noundef %0) #0 {
  %2 = alloca ptr, align 8
  store ptr %0, ptr %2, align 8
  %3 = load ptr, ptr %2, align 8
  %4 = getelementptr inbounds %struct.nsis_st, ptr %3, i32 0, i32 11
  %5 = load i8, ptr %4, align 2
  %6 = icmp ne i8 %5, 0
  br i1 %6, label %8, label %7

7:                                                ; preds = %1
  br label %24

8:                                                ; preds = %1
  %9 = load ptr, ptr %2, align 8
  %10 = getelementptr inbounds %struct.nsis_st, ptr %9, i32 0, i32 9
  %11 = load i8, ptr %10, align 4
  %12 = zext i8 %11 to i32
  switch i32 %12, label %21 [
    i32 1, label %13
    i32 2, label %17
    i32 3, label %20
  ]

13:                                               ; preds = %8
  %14 = load ptr, ptr %2, align 8
  %15 = getelementptr inbounds %struct.nsis_st, ptr %14, i32 0, i32 14
  %16 = call i32 @nsis_BZ2_bzDecompressEnd(ptr noundef %15)
  br label %21

17:                                               ; preds = %8
  %18 = load ptr, ptr %2, align 8
  %19 = getelementptr inbounds %struct.nsis_st, ptr %18, i32 0, i32 15
  call void @cli_LzmaShutdown(ptr noundef %19)
  br label %21

20:                                               ; preds = %8
  br label %21

21:                                               ; preds = %20, %17, %13, %8
  %22 = load ptr, ptr %2, align 8
  %23 = getelementptr inbounds %struct.nsis_st, ptr %22, i32 0, i32 11
  store i8 0, ptr %23, align 2
  br label %24

24:                                               ; preds = %21, %7
  ret void
}