; Function Attrs: nounwind uwtable
define internal fastcc void @nsis_shutdown(ptr noundef %0) unnamed_addr #0 {
  %2 = getelementptr inbounds i8, ptr %0, i64 54
  %3 = load i8, ptr %2, align 2
  %.not = icmp eq i8 %3, 0
  br i1 %.not, label %13, label %4

4:                                                ; preds = %1
  %5 = getelementptr inbounds i8, ptr %0, i64 52
  %6 = load i8, ptr %5, align 4
  switch i8 %6, label %12 [
    i8 1, label %7
    i8 2, label %10
  ]

7:                                                ; preds = %4
  %8 = getelementptr inbounds i8, ptr %0, i64 88
  %9 = tail call i32 @nsis_BZ2_bzDecompressEnd(ptr noundef nonnull %8) #10
  br label %12

10:                                               ; preds = %4
  %11 = getelementptr inbounds i8, ptr %0, i64 168
  tail call void @cli_LzmaShutdown(ptr noundef nonnull %11) #10
  br label %12

12:                                               ; preds = %10, %7, %4
  store i8 0, ptr %2, align 2
  br label %13

13:                                               ; preds = %1, %12
  ret void
}